target datalayout = "e-m:e-p270:32:32-p271:32:32-p272:64:64-i64:64-i128:128-f80:128-n8:16:32:64-S128"
target triple = "x86_64-pc-linux-gnu"

%union.pthread_mutex_t = type { %struct.__pthread_mutex_s }
%struct.__pthread_mutex_s = type { i32, i32, i32, i32, i32, i16, i16, %struct.__pthread_internal_list }
%struct.__pthread_internal_list = type { ptr, ptr }
%struct.stepd_step_task_info_t = type { %union.pthread_mutex_t, i32, ptr, i32, i32, i32, ptr, ptr, ptr, i32, i32, i32, i32, i32, i32, ptr, ptr, ptr, i8, i8, i8, i8, i32, i32, ptr }
%struct.winsize = type { i16, i16, i16, i16 }
%struct.window_info = type { ptr, ptr, i32 }
%struct.pty_winsz = type { i16, i16 }
%struct.pollfd = type { i32, i16, i16 }

@.str.124 = private unnamed_addr constant [22 x i8] c"ioctl(TIOCSWINSZ): %s\00", align 1
@.str.126 = private unnamed_addr constant [14 x i8] c"poll(pty): %m\00", align 1
@.str.127 = private unnamed_addr constant [31 x i8] c"%s: read window size error: %m\00", align 1
@__func__._window_manager = private unnamed_addr constant [16 x i8] c"_window_manager\00", align 1
@.str.128 = private unnamed_addr constant [19 x i8] c"new pty size %u:%u\00", align 1
@.str.129 = private unnamed_addr constant [23 x i8] c"kill(%d, SIGWINCH): %m\00", align 1

; Function Attrs: inlinehint nounwind uwtable
define internal zeroext i16 @__bswap_16(i16 noundef zeroext %0) #9 {
  %2 = alloca i16, align 2
  store i16 %0, ptr %2, align 2
  %3 = load i16, ptr %2, align 2
  %4 = zext i16 %3 to i32
  %5 = ashr i32 %4, 8
  %6 = and i32 %5, 255
  %7 = load i16, ptr %2, align 2
  %8 = zext i16 %7 to i32
  %9 = and i32 %8, 255
  %10 = shl i32 %9, 8
  %11 = or i32 %6, %10
  %12 = trunc i32 %11 to i16
  ret i16 %12
}

; Function Attrs: nounwind uwtable
define internal ptr @_window_manager(ptr noundef %0) #0 {
  %2 = alloca ptr, align 8
  %3 = alloca ptr, align 8
  %4 = alloca ptr, align 8
  %5 = alloca %struct.pty_winsz, align 2
  %6 = alloca i64, align 8
  %7 = alloca %struct.winsize, align 2
  %8 = alloca %struct.pollfd, align 4
  %9 = alloca [4 x i8], align 1
  %10 = alloca i32, align 4
  store ptr %0, ptr %3, align 8
  call void @llvm.lifetime.start.p0(i64 8, ptr %4) #10
  %11 = load ptr, ptr %3, align 8
  store ptr %11, ptr %4, align 8
  call void @llvm.lifetime.start.p0(i64 4, ptr %5) #10
  call void @llvm.lifetime.start.p0(i64 8, ptr %6) #10
  call void @llvm.lifetime.start.p0(i64 8, ptr %7) #10
  call void @llvm.lifetime.start.p0(i64 8, ptr %8) #10
  call void @llvm.lifetime.start.p0(i64 4, ptr %9) #10
  %12 = load ptr, ptr %4, align 8
  %13 = getelementptr inbounds nuw %struct.window_info, ptr %12, i32 0, i32 2
  %14 = load i32, ptr %13, align 8
  %15 = getelementptr inbounds nuw %struct.pollfd, ptr %8, i32 0, i32 0
  store i32 %14, ptr %15, align 4
  %16 = getelementptr inbounds nuw %struct.pollfd, ptr %8, i32 0, i32 1
  store i16 1, ptr %16, align 4
  br label %17

17:                                               ; preds = %124, %51, %25, %1
  br label %18

18:                                               ; preds = %17
  %19 = call i32 @poll(ptr noundef %8, i64 noundef 1, i32 noundef -1)
  %20 = icmp sle i32 %19, 0
  br i1 %20, label %21, label %28

21:                                               ; preds = %18
  %22 = call ptr @__errno_location() #11
  %23 = load i32, ptr %22, align 4
  %24 = icmp eq i32 %23, 4
  br i1 %24, label %25, label %26

25:                                               ; preds = %21
  br label %17, !llvm.loop !35

26:                                               ; preds = %21
  %27 = call i32 (ptr, ...) @error(ptr noundef @.str.126)
  br label %125

28:                                               ; preds = %18
  %29 = getelementptr inbounds nuw %struct.pollfd, ptr %8, i32 0, i32 2
  %30 = load i16, ptr %29, align 2
  %31 = sext i16 %30 to i32
  %32 = and i32 %31, 1
  %33 = icmp ne i32 %32, 0
  br i1 %33, label %35, label %34

34:                                               ; preds = %28
  br label %125

35:                                               ; preds = %28
  %36 = load ptr, ptr %4, align 8
  %37 = getelementptr inbounds nuw %struct.window_info, ptr %36, i32 0, i32 2
  %38 = load i32, ptr %37, align 8
  %39 = getelementptr inbounds [4 x i8], ptr %9, i64 0, i64 0
  %40 = call i64 @slurm_read_stream(i32 noundef %38, ptr noundef %39, i64 noundef 4)
  store i64 %40, ptr %6, align 8
  %41 = load i64, ptr %6, align 8
  %42 = icmp eq i64 %41, -1
  br i1 %42, label %43, label %52

43:                                               ; preds = %35
  %44 = call ptr @__errno_location() #11
  %45 = load i32, ptr %44, align 4
  %46 = icmp eq i32 %45, 4
  br i1 %46, label %51, label %47

47:                                               ; preds = %43
  %48 = call ptr @__errno_location() #11
  %49 = load i32, ptr %48, align 4
  %50 = icmp eq i32 %49, 11
  br i1 %50, label %51, label %52

51:                                               ; preds = %47, %43
  br label %17, !llvm.loop !35

52:                                               ; preds = %47, %35
  %53 = load i64, ptr %6, align 8
  %54 = icmp slt i64 %53, 4
  br i1 %54, label %55, label %62

55:                                               ; preds = %52
  %56 = call ptr @__errno_location() #11
  %57 = load i32, ptr %56, align 4
  %58 = icmp ne i32 %57, 5005
  br i1 %58, label %59, label %61

59:                                               ; preds = %55
  %60 = call i32 (ptr, ...) @error(ptr noundef @.str.127, ptr noundef @__func__._window_manager)
  br label %61

61:                                               ; preds = %59, %55
  store ptr null, ptr %2, align 8
  store i32 1, ptr %10, align 4
  br label %126

62:                                               ; preds = %52
  %63 = getelementptr inbounds nuw %struct.pty_winsz, ptr %5, i32 0, i32 0
  %64 = getelementptr inbounds [4 x i8], ptr %9, i64 0, i64 0
  call void @llvm.memcpy.p0.p0.i64(ptr align 2 %63, ptr align 1 %64, i64 2, i1 false)
  %65 = getelementptr inbounds nuw %struct.pty_winsz, ptr %5, i32 0, i32 1
  %66 = getelementptr inbounds [4 x i8], ptr %9, i64 0, i64 0
  %67 = getelementptr inbounds i8, ptr %66, i64 2
  call void @llvm.memcpy.p0.p0.i64(ptr align 2 %65, ptr align 1 %67, i64 2, i1 false)
  %68 = getelementptr inbounds nuw %struct.pty_winsz, ptr %5, i32 0, i32 0
  %69 = load i16, ptr %68, align 2
  %70 = call zeroext i16 @__bswap_16(i16 noundef zeroext %69)
  %71 = getelementptr inbounds nuw %struct.winsize, ptr %7, i32 0, i32 1
  store i16 %70, ptr %71, align 2
  %72 = getelementptr inbounds nuw %struct.pty_winsz, ptr %5, i32 0, i32 1
  %73 = load i16, ptr %72, align 2
  %74 = call zeroext i16 @__bswap_16(i16 noundef zeroext %73)
  %75 = getelementptr inbounds nuw %struct.winsize, ptr %7, i32 0, i32 0
  store i16 %74, ptr %75, align 2
  br label %76

76:                                               ; preds = %62
  br label %77

77:                                               ; preds = %76
  %78 = call i32 @get_log_level()
  %79 = icmp sge i32 %78, 5
  br i1 %79, label %80, label %87

80:                                               ; preds = %77
  %81 = getelementptr inbounds nuw %struct.winsize, ptr %7, i32 0, i32 0
  %82 = load i16, ptr %81, align 2
  %83 = zext i16 %82 to i32
  %84 = getelementptr inbounds nuw %struct.winsize, ptr %7, i32 0, i32 1
  %85 = load i16, ptr %84, align 2
  %86 = zext i16 %85 to i32
  call void (i32, ptr, ...) @log_var(i32 noundef 5, ptr noundef @.str.128, i32 noundef %83, i32 noundef %86)
  br label %87

87:                                               ; preds = %80, %77
  br label %88

88:                                               ; preds = %87
  br label %89

89:                                               ; preds = %88
  br label %90

90:                                               ; preds = %89
  br label %91

91:                                               ; preds = %90
  %92 = load ptr, ptr %4, align 8
  %93 = getelementptr inbounds nuw %struct.window_info, ptr %92, i32 0, i32 0
  %94 = load ptr, ptr %93, align 8
  %95 = getelementptr inbounds nuw %struct.stepd_step_task_info_t, ptr %94, i32 0, i32 12
  %96 = load i32, ptr %95, align 4
  %97 = call i32 (i32, i64, ...) @ioctl(i32 noundef %96, i64 noundef 21524, ptr noundef %7) #10
  %98 = icmp ne i32 %97, 0
  br i1 %98, label %99, label %104

99:                                               ; preds = %91
  %100 = call ptr @__errno_location() #11
  %101 = load i32, ptr %100, align 4
  %102 = call ptr @strerror(i32 noundef %101) #10
  %103 = call i32 (ptr, ...) @error(ptr noundef @.str.124, ptr noundef %102)
  br label %104

104:                                              ; preds = %99, %91
  %105 = load ptr, ptr %4, align 8
  %106 = getelementptr inbounds nuw %struct.window_info, ptr %105, i32 0, i32 0
  %107 = load ptr, ptr %106, align 8
  %108 = getelementptr inbounds nuw %struct.stepd_step_task_info_t, ptr %107, i32 0, i32 5
  %109 = load i32, ptr %108, align 8
  %110 = call i32 @kill(i32 noundef %109, i32 noundef 28) #10
  %111 = icmp ne i32 %110, 0
  br i1 %111, label %112, label %124

112:                                              ; preds = %104
  %113 = call ptr @__errno_location() #11
  %114 = load i32, ptr %113, align 4
  %115 = icmp eq i32 %114, 3
  br i1 %115, label %116, label %117

116:                                              ; preds = %112
  br label %125

117:                                              ; preds = %112
  %118 = load ptr, ptr %4, align 8
  %119 = getelementptr inbounds nuw %struct.window_info, ptr %118, i32 0, i32 0
  %120 = load ptr, ptr %119, align 8
  %121 = getelementptr inbounds nuw %struct.stepd_step_task_info_t, ptr %120, i32 0, i32 5
  %122 = load i32, ptr %121, align 8
  %123 = call i32 (ptr, ...) @error(ptr noundef @.str.129, i32 noundef %122)
  br label %124

124:                                              ; preds = %117, %104
  br label %17, !llvm.loop !35

125:                                              ; preds = %116, %34, %26
  store ptr null, ptr %2, align 8
  store i32 1, ptr %10, align 4
  br label %126

126:                                              ; preds = %125, %61
  call void @llvm.lifetime.end.p0(i64 4, ptr %9) #10
  call void @llvm.lifetime.end.p0(i64 8, ptr %8) #10
  call void @llvm.lifetime.end.p0(i64 8, ptr %7) #10
  call void @llvm.lifetime.end.p0(i64 8, ptr %6) #10
  call void @llvm.lifetime.end.p0(i64 4, ptr %5) #10
  call void @llvm.lifetime.end.p0(i64 8, ptr %4) #10
  %127 = load ptr, ptr %2, align 8
  ret ptr %127
}