; Function Attrs: nounwind uwtable
define internal noalias noundef ptr @_window_manager(ptr noundef readonly captures(none) %0) #0 {
  %2 = alloca %struct.winsize, align 2
  %3 = alloca %struct.pollfd, align 4
  %4 = alloca [4 x i8], align 2
  call void @llvm.lifetime.start.p0(i64 8, ptr nonnull %2) #11
  call void @llvm.lifetime.start.p0(i64 8, ptr nonnull %3) #11
  call void @llvm.lifetime.start.p0(i64 4, ptr nonnull %4) #11
  %5 = getelementptr inbounds nuw i8, ptr %0, i64 16
  %6 = load i32, ptr %5, align 8
  store i32 %6, ptr %3, align 4
  %7 = getelementptr inbounds nuw i8, ptr %3, i64 4
  store i16 1, ptr %7, align 4
  %8 = getelementptr inbounds nuw i8, ptr %3, i64 6
  %9 = getelementptr inbounds nuw i8, ptr %4, i64 2
  %10 = getelementptr inbounds nuw i8, ptr %2, i64 2
  br label %.backedge

.backedge:                                        ; preds = %.backedge.backedge, %1
  %11 = call i32 @poll(ptr noundef nonnull %3, i64 noundef 1, i32 noundef -1) #11
  %12 = icmp slt i32 %11, 1
  br i1 %12, label %13, label %19

13:                                               ; preds = %.backedge
  %14 = tail call ptr @__errno_location() #13
  %15 = load i32, ptr %14, align 4
  %16 = icmp eq i32 %15, 4
  br i1 %16, label %.backedge.backedge, label %17

17:                                               ; preds = %13
  %18 = call i32 (ptr, ...) @error(ptr noundef nonnull @.str.126) #11
  br label %.loopexit

19:                                               ; preds = %.backedge
  %20 = load i16, ptr %8, align 2
  %21 = and i16 %20, 1
  %.not = icmp eq i16 %21, 0
  br i1 %.not, label %.loopexit, label %22

22:                                               ; preds = %19
  %23 = load i32, ptr %5, align 8
  %24 = call i64 @slurm_read_stream(i32 noundef %23, ptr noundef nonnull %4, i64 noundef 4) #11
  %25 = icmp eq i64 %24, -1
  br i1 %25, label %26, label %29

26:                                               ; preds = %22
  %27 = tail call ptr @__errno_location() #13
  %28 = load i32, ptr %27, align 4
  switch i32 %28, label %.thread [
    i32 4, label %.backedge.backedge
    i32 11, label %.backedge.backedge
  ]

29:                                               ; preds = %22
  %30 = icmp slt i64 %24, 4
  br i1 %30, label %..thread_crit_edge, label %34

..thread_crit_edge:                               ; preds = %29
  %.pre = tail call ptr @__errno_location() #13
  %.pr = load i32, ptr %.pre, align 4
  br label %.thread

.thread:                                          ; preds = %26, %..thread_crit_edge
  %31 = phi i32 [ %.pr, %..thread_crit_edge ], [ %28, %26 ]
  %.not10 = icmp eq i32 %31, 5005
  br i1 %.not10, label %.loopexit, label %32

32:                                               ; preds = %.thread
  %33 = call i32 (ptr, ...) @error(ptr noundef nonnull @.str.127, ptr noundef nonnull @__func__._window_manager) #11
  br label %.loopexit

34:                                               ; preds = %29
  %.sroa.0.0.copyload = load i16, ptr %4, align 2
  %.sroa.4.2.copyload = load i16, ptr %9, align 2
  %rev.i = call noundef i16 @llvm.bswap.i16(i16 %.sroa.0.0.copyload)
  store i16 %rev.i, ptr %10, align 2
  %rev.i11 = call noundef i16 @llvm.bswap.i16(i16 %.sroa.4.2.copyload)
  store i16 %rev.i11, ptr %2, align 2
  %35 = call i32 @get_log_level() #11
  %36 = icmp sgt i32 %35, 4
  br i1 %36, label %37, label %42

37:                                               ; preds = %34
  %38 = load i16, ptr %2, align 2
  %39 = zext i16 %38 to i32
  %40 = load i16, ptr %10, align 2
  %41 = zext i16 %40 to i32
  call void (i32, ptr, ...) @log_var(i32 noundef 5, ptr noundef nonnull @.str.128, i32 noundef %39, i32 noundef %41) #11
  br label %42

42:                                               ; preds = %37, %34
  %43 = load ptr, ptr %0, align 8
  %44 = getelementptr inbounds nuw i8, ptr %43, i64 108
  %45 = load i32, ptr %44, align 4
  %46 = call i32 (i32, i64, ...) @ioctl(i32 noundef %45, i64 noundef 21524, ptr noundef nonnull %2) #11
  %.not8 = icmp eq i32 %46, 0
  br i1 %.not8, label %52, label %47

47:                                               ; preds = %42
  %48 = tail call ptr @__errno_location() #13
  %49 = load i32, ptr %48, align 4
  %50 = call ptr @strerror(i32 noundef %49) #11
  %51 = call i32 (ptr, ...) @error(ptr noundef nonnull @.str.124, ptr noundef %50) #11
  br label %52

52:                                               ; preds = %47, %42
  %53 = load ptr, ptr %0, align 8
  %54 = getelementptr inbounds nuw i8, ptr %53, i64 64
  %55 = load i32, ptr %54, align 8
  %56 = call i32 @kill(i32 noundef %55, i32 noundef 28) #11
  %.not9 = icmp eq i32 %56, 0
  br i1 %.not9, label %.backedge.backedge, label %57

.backedge.backedge:                               ; preds = %52, %61, %26, %26, %13
  br label %.backedge, !llvm.loop !35

57:                                               ; preds = %52
  %58 = tail call ptr @__errno_location() #13
  %59 = load i32, ptr %58, align 4
  %60 = icmp eq i32 %59, 3
  br i1 %60, label %.loopexit, label %61

61:                                               ; preds = %57
  %62 = load ptr, ptr %0, align 8
  %63 = getelementptr inbounds nuw i8, ptr %62, i64 64
  %64 = load i32, ptr %63, align 8
  %65 = call i32 (ptr, ...) @error(ptr noundef nonnull @.str.129, i32 noundef %64) #11
  br label %.backedge.backedge

.loopexit:                                        ; preds = %19, %57, %17, %.thread, %32
  call void @llvm.lifetime.end.p0(i64 4, ptr nonnull %4) #11
  call void @llvm.lifetime.end.p0(i64 8, ptr nonnull %3) #11
  call void @llvm.lifetime.end.p0(i64 8, ptr nonnull %2) #11
  ret ptr null
}